target datalayout = "e-m:e-p270:32:32-p271:32:32-p272:64:64-i64:64-i128:128-f80:128-n8:16:32:64-S128"
target triple = "x86_64-pc-linux-gnu"

; Function Attrs: nounwind uwtable
define ptr @Abc_ConvertSopToBdd2(ptr noundef %0, ptr noundef %1, ptr noundef %2) #0 {
  %4 = alloca ptr, align 8
  %5 = alloca ptr, align 8
  %6 = alloca ptr, align 8
  %7 = alloca i32, align 4
  %8 = alloca i32, align 4
  store ptr %0, ptr %4, align 8, !tbaa !15
  store ptr %1, ptr %5, align 8, !tbaa !3
  store ptr %2, ptr %6, align 8, !tbaa !17
  call void @llvm.lifetime.start.p0(i64 4, ptr %7) #10
  %9 = load ptr, ptr %5, align 8, !tbaa !3
  %10 = call i32 @Abc_SopGetCubeNum(ptr noundef %9)
  store i32 %10, ptr %7, align 4, !tbaa !8
  call void @llvm.lifetime.start.p0(i64 4, ptr %8) #10
  %11 = load ptr, ptr %5, align 8, !tbaa !3
  %12 = call i32 @Abc_SopGetVarNum(ptr noundef %11)
  %13 = add nsw i32 %12, 3
  store i32 %13, ptr %8, align 4, !tbaa !8
  %14 = load ptr, ptr %4, align 8, !tbaa !15
  %15 = load ptr, ptr %5, align 8, !tbaa !3
  %16 = load ptr, ptr %6, align 8, !tbaa !17
  %17 = load i32, ptr %7, align 4, !tbaa !8
  %18 = load i32, ptr %8, align 4, !tbaa !8
  %19 = call ptr @Abc_ConvertSopToBdd2_rec(ptr noundef %14, ptr noundef %15, ptr noundef %16, i32 noundef %17, i32 noundef %18, i32 noundef 0)
  call void @llvm.lifetime.end.p0(i64 4, ptr %8) #10
  call void @llvm.lifetime.end.p0(i64 4, ptr %7) #10
  ret ptr %19
}

; Function Attrs: nounwind uwtable
define ptr @Abc_ConvertSopToBdd(ptr noundef %0, ptr noundef %1, ptr noundef %2) #0 {
  %4 = alloca ptr, align 8
  %5 = alloca ptr, align 8
  %6 = alloca ptr, align 8
  %7 = alloca ptr, align 8
  %8 = alloca ptr, align 8
  %9 = alloca ptr, align 8
  %10 = alloca ptr, align 8
  %11 = alloca ptr, align 8
  %12 = alloca i32, align 4
  %13 = alloca i32, align 4
  %14 = alloca i32, align 4
  %15 = alloca ptr, align 8
  store ptr %0, ptr %4, align 8, !tbaa !15
  store ptr %1, ptr %5, align 8, !tbaa !3
  store ptr %2, ptr %6, align 8, !tbaa !17
  call void @llvm.lifetime.start.p0(i64 8, ptr %7) #10
  call void @llvm.lifetime.start.p0(i64 8, ptr %8) #10
  call void @llvm.lifetime.start.p0(i64 8, ptr %9) #10
  call void @llvm.lifetime.start.p0(i64 8, ptr %10) #10
  call void @llvm.lifetime.start.p0(i64 8, ptr %11) #10
  call void @llvm.lifetime.start.p0(i64 4, ptr %12) #10
  call void @llvm.lifetime.start.p0(i64 4, ptr %13) #10
  call void @llvm.lifetime.start.p0(i64 4, ptr %14) #10
  %16 = load ptr, ptr %5, align 8, !tbaa !3
  %17 = call i32 @Abc_SopGetVarNum(ptr noundef %16)
  store i32 %17, ptr %12, align 4, !tbaa !8
  %18 = load ptr, ptr %4, align 8, !tbaa !15
  %19 = call ptr @Cudd_ReadLogicZero(ptr noundef %18)
  store ptr %19, ptr %7, align 8, !tbaa !19
  %20 = load ptr, ptr %7, align 8, !tbaa !19
  call void @Cudd_Ref(ptr noundef %20)
  %21 = load ptr, ptr %5, align 8, !tbaa !3
  %22 = call i32 @Abc_SopIsExorType(ptr noundef %21)
  %23 = icmp ne i32 %22, 0
  br i1 %23, label %24, label %54

24:                                               ; preds = %3
  store i32 0, ptr %14, align 4, !tbaa !8
  br label %25

25:                                               ; preds = %50, %24
  %26 = load i32, ptr %14, align 4, !tbaa !8
  %27 = load i32, ptr %12, align 4, !tbaa !8
  %28 = icmp slt i32 %26, %27
  br i1 %28, label %29, label %53

29:                                               ; preds = %25
  %30 = load ptr, ptr %4, align 8, !tbaa !15
  %31 = load ptr, ptr %7, align 8, !tbaa !19
  store ptr %31, ptr %9, align 8, !tbaa !19
  %32 = load ptr, ptr %6, align 8, !tbaa !17
  %33 = icmp ne ptr %32, null
  br i1 %33, label %34, label %40

34:                                               ; preds = %29
  %35 = load ptr, ptr %6, align 8, !tbaa !17
  %36 = load i32, ptr %14, align 4, !tbaa !8
  %37 = sext i32 %36 to i64
  %38 = getelementptr inbounds ptr, ptr %35, i64 %37
  %39 = load ptr, ptr %38, align 8, !tbaa !19
  br label %44

40:                                               ; preds = %29
  %41 = load ptr, ptr %4, align 8, !tbaa !15
  %42 = load i32, ptr %14, align 4, !tbaa !8
  %43 = call ptr @Cudd_bddIthVar(ptr noundef %41, i32 noundef %42)
  br label %44

44:                                               ; preds = %40, %34
  %45 = phi ptr [ %39, %34 ], [ %43, %40 ]
  %46 = call ptr @Cudd_bddXor(ptr noundef %30, ptr noundef %31, ptr noundef %45)
  store ptr %46, ptr %7, align 8, !tbaa !19
  %47 = load ptr, ptr %7, align 8, !tbaa !19
  call void @Cudd_Ref(ptr noundef %47)
  %48 = load ptr, ptr %4, align 8, !tbaa !15
  %49 = load ptr, ptr %9, align 8, !tbaa !19
  call void @Cudd_RecursiveDeref(ptr noundef %48, ptr noundef %49)
  br label %50

50:                                               ; preds = %44
  %51 = load i32, ptr %14, align 4, !tbaa !8
  %52 = add nsw i32 %51, 1
  store i32 %52, ptr %14, align 4, !tbaa !8
  br label %25, !llvm.loop !22

53:                                               ; preds = %25
  br label %198

54:                                               ; preds = %3
  %55 = load ptr, ptr %5, align 8, !tbaa !3
  %56 = call i32 @Abc_SopGetCubeNum(ptr noundef %55)
  %57 = icmp sgt i32 %56, 10000
  br i1 %57, label %58, label %100

58:                                               ; preds = %54
  %59 = load ptr, ptr %7, align 8, !tbaa !19
  call void @Cudd_Deref(ptr noundef %59)
  %60 = load ptr, ptr %6, align 8, !tbaa !17
  %61 = icmp ne ptr %60, null
  br i1 %61, label %62, label %67

62:                                               ; preds = %58
  %63 = load ptr, ptr %4, align 8, !tbaa !15
  %64 = load ptr, ptr %5, align 8, !tbaa !3
  %65 = load ptr, ptr %6, align 8, !tbaa !17
  %66 = call ptr @Abc_ConvertSopToBdd2(ptr noundef %63, ptr noundef %64, ptr noundef %65)
  store ptr %66, ptr %7, align 8, !tbaa !19
  br label %98

67:                                               ; preds = %58
  call void @llvm.lifetime.start.p0(i64 8, ptr %15) #10
  %68 = load i32, ptr %12, align 4, !tbaa !8
  %69 = sext i32 %68 to i64
  %70 = mul i64 8, %69
  %71 = call noalias ptr @malloc(i64 noundef %70) #11
  store ptr %71, ptr %15, align 8, !tbaa !17
  store i32 0, ptr %14, align 4, !tbaa !8
  br label %72

72:                                               ; preds = %84, %67
  %73 = load i32, ptr %14, align 4, !tbaa !8
  %74 = load i32, ptr %12, align 4, !tbaa !8
  %75 = icmp slt i32 %73, %74
  br i1 %75, label %76, label %87

76:                                               ; preds = %72
  %77 = load ptr, ptr %4, align 8, !tbaa !15
  %78 = load i32, ptr %14, align 4, !tbaa !8
  %79 = call ptr @Cudd_bddIthVar(ptr noundef %77, i32 noundef %78)
  %80 = load ptr, ptr %15, align 8, !tbaa !17
  %81 = load i32, ptr %14, align 4, !tbaa !8
  %82 = sext i32 %81 to i64
  %83 = getelementptr inbounds ptr, ptr %80, i64 %82
  store ptr %79, ptr %83, align 8, !tbaa !19
  br label %84

84:                                               ; preds = %76
  %85 = load i32, ptr %14, align 4, !tbaa !8
  %86 = add nsw i32 %85, 1
  store i32 %86, ptr %14, align 4, !tbaa !8
  br label %72, !llvm.loop !23

87:                                               ; preds = %72
  %88 = load ptr, ptr %4, align 8, !tbaa !15
  %89 = load ptr, ptr %5, align 8, !tbaa !3
  %90 = load ptr, ptr %15, align 8, !tbaa !17
  %91 = call ptr @Abc_ConvertSopToBdd2(ptr noundef %88, ptr noundef %89, ptr noundef %90)
  store ptr %91, ptr %7, align 8, !tbaa !19
  %92 = load ptr, ptr %15, align 8, !tbaa !17
  %93 = icmp ne ptr %92, null
  br i1 %93, label %94, label %96

94:                                               ; preds = %87
  %95 = load ptr, ptr %15, align 8, !tbaa !17
  call void @free(ptr noundef %95) #10
  store ptr null, ptr %15, align 8, !tbaa !17
  br label %97

96:                                               ; preds = %87
  br label %97

97:                                               ; preds = %96, %94
  call void @llvm.lifetime.end.p0(i64 8, ptr %15) #10
  br label %98

98:                                               ; preds = %97, %62
  %99 = load ptr, ptr %7, align 8, !tbaa !19
  call void @Cudd_Ref(ptr noundef %99)
  br label %197

100:                                              ; preds = %54
  %101 = load ptr, ptr %5, align 8, !tbaa !3
  store ptr %101, ptr %11, align 8, !tbaa !3
  br label %102

102:                                              ; preds = %190, %100
  %103 = load ptr, ptr %11, align 8, !tbaa !3
  %104 = load i8, ptr %103, align 1, !tbaa !12
  %105 = icmp ne i8 %104, 0
  br i1 %105, label %106, label %196

106:                                              ; preds = %102
  %107 = load ptr, ptr %4, align 8, !tbaa !15
  %108 = call ptr @Cudd_ReadOne(ptr noundef %107)
  store ptr %108, ptr %8, align 8, !tbaa !19
  %109 = load ptr, ptr %8, align 8, !tbaa !19
  call void @Cudd_Ref(ptr noundef %109)
  store i32 0, ptr %14, align 4, !tbaa !8
  br label %110

110:                                              ; preds = %177, %106
  %111 = load ptr, ptr %11, align 8, !tbaa !3
  %112 = load i32, ptr %14, align 4, !tbaa !8
  %113 = sext i32 %112 to i64
  %114 = getelementptr inbounds i8, ptr %111, i64 %113
  %115 = load i8, ptr %114, align 1, !tbaa !12
  %116 = sext i8 %115 to i32
  %117 = icmp ne i32 %116, 32
  br i1 %117, label %118, label %126

118:                                              ; preds = %110
  %119 = load ptr, ptr %11, align 8, !tbaa !3
  %120 = load i32, ptr %14, align 4, !tbaa !8
  %121 = sext i32 %120 to i64
  %122 = getelementptr inbounds i8, ptr %119, i64 %121
  %123 = load i8, ptr %122, align 1, !tbaa !12
  %124 = sext i8 %123 to i32
  store i32 %124, ptr %13, align 4, !tbaa !8
  %125 = icmp ne i32 %124, 0
  br label %126

126:                                              ; preds = %118, %110
  %127 = phi i1 [ false, %110 ], [ %125, %118 ]
  br i1 %127, label %128, label %180

128:                                              ; preds = %126
  %129 = load i32, ptr %13, align 4, !tbaa !8
  %130 = icmp eq i32 %129, 48
  br i1 %130, label %131, label %149

131:                                              ; preds = %128
  %132 = load ptr, ptr %6, align 8, !tbaa !17
  %133 = icmp ne ptr %132, null
  br i1 %133, label %134, label %140

134:                                              ; preds = %131
  %135 = load ptr, ptr %6, align 8, !tbaa !17
  %136 = load i32, ptr %14, align 4, !tbaa !8
  %137 = sext i32 %136 to i64
  %138 = getelementptr inbounds ptr, ptr %135, i64 %137
  %139 = load ptr, ptr %138, align 8, !tbaa !19
  br label %144

140:                                              ; preds = %131
  %141 = load ptr, ptr %4, align 8, !tbaa !15
  %142 = load i32, ptr %14, align 4, !tbaa !8
  %143 = call ptr @Cudd_bddIthVar(ptr noundef %141, i32 noundef %142)
  br label %144

144:                                              ; preds = %140, %134
  %145 = phi ptr [ %139, %134 ], [ %143, %140 ]
  %146 = ptrtoint ptr %145 to i64
  %147 = xor i64 %146, 1
  %148 = inttoptr i64 %147 to ptr
  store ptr %148, ptr %10, align 8, !tbaa !19
  br label %169

149:                                              ; preds = %128
  %150 = load i32, ptr %13, align 4, !tbaa !8
  %151 = icmp eq i32 %150, 49
  br i1 %151, label %152, label %167

152:                                              ; preds = %149
  %153 = load ptr, ptr %6, align 8, !tbaa !17
  %154 = icmp ne ptr %153, null
  br i1 %154, label %155, label %161

155:                                              ; preds = %152
  %156 = load ptr, ptr %6, align 8, !tbaa !17
  %157 = load i32, ptr %14, align 4, !tbaa !8
  %158 = sext i32 %157 to i64
  %159 = getelementptr inbounds ptr, ptr %156, i64 %158
  %160 = load ptr, ptr %159, align 8, !tbaa !19
  br label %165

161:                                              ; preds = %152
  %162 = load ptr, ptr %4, align 8, !tbaa !15
  %163 = load i32, ptr %14, align 4, !tbaa !8
  %164 = call ptr @Cudd_bddIthVar(ptr noundef %162, i32 noundef %163)
  br label %165

165:                                              ; preds = %161, %155
  %166 = phi ptr [ %160, %155 ], [ %164, %161 ]
  store ptr %166, ptr %10, align 8, !tbaa !19
  br label %168

167:                                              ; preds = %149
  br label %177

168:                                              ; preds = %165
  br label %169

169:                                              ; preds = %168, %144
  %170 = load ptr, ptr %4, align 8, !tbaa !15
  %171 = load ptr, ptr %8, align 8, !tbaa !19
  store ptr %171, ptr %9, align 8, !tbaa !19
  %172 = load ptr, ptr %10, align 8, !tbaa !19
  %173 = call ptr @Cudd_bddAnd(ptr noundef %170, ptr noundef %171, ptr noundef %172)
  store ptr %173, ptr %8, align 8, !tbaa !19
  %174 = load ptr, ptr %8, align 8, !tbaa !19
  call void @Cudd_Ref(ptr noundef %174)
  %175 = load ptr, ptr %4, align 8, !tbaa !15
  %176 = load ptr, ptr %9, align 8, !tbaa !19
  call void @Cudd_RecursiveDeref(ptr noundef %175, ptr noundef %176)
  br label %177

177:                                              ; preds = %169, %167
  %178 = load i32, ptr %14, align 4, !tbaa !8
  %179 = add nsw i32 %178, 1
  store i32 %179, ptr %14, align 4, !tbaa !8
  br label %110, !llvm.loop !24

180:                                              ; preds = %126
  %181 = load ptr, ptr %4, align 8, !tbaa !15
  %182 = load ptr, ptr %7, align 8, !tbaa !19
  store ptr %182, ptr %9, align 8, !tbaa !19
  %183 = load ptr, ptr %8, align 8, !tbaa !19
  %184 = call ptr @Cudd_bddOr(ptr noundef %181, ptr noundef %182, ptr noundef %183)
  store ptr %184, ptr %7, align 8, !tbaa !19
  %185 = load ptr, ptr %7, align 8, !tbaa !19
  call void @Cudd_Ref(ptr noundef %185)
  %186 = load ptr, ptr %4, align 8, !tbaa !15
  %187 = load ptr, ptr %9, align 8, !tbaa !19
  call void @Cudd_RecursiveDeref(ptr noundef %186, ptr noundef %187)
  %188 = load ptr, ptr %4, align 8, !tbaa !15
  %189 = load ptr, ptr %8, align 8, !tbaa !19
  call void @Cudd_RecursiveDeref(ptr noundef %188, ptr noundef %189)
  br label %190

190:                                              ; preds = %180
  %191 = load i32, ptr %12, align 4, !tbaa !8
  %192 = add nsw i32 %191, 3
  %193 = load ptr, ptr %11, align 8, !tbaa !3
  %194 = sext i32 %192 to i64
  %195 = getelementptr inbounds i8, ptr %193, i64 %194
  store ptr %195, ptr %11, align 8, !tbaa !3
  br label %102, !llvm.loop !25

196:                                              ; preds = %102
  br label %197

197:                                              ; preds = %196, %98
  br label %198

198:                                              ; preds = %197, %53
  %199 = load ptr, ptr %7, align 8, !tbaa !19
  %200 = ptrtoint ptr %199 to i64
  %201 = load ptr, ptr %5, align 8, !tbaa !3
  %202 = call i32 @Abc_SopGetPhase(ptr noundef %201)
  %203 = icmp ne i32 %202, 0
  %204 = xor i1 %203, true
  %205 = zext i1 %204 to i32
  %206 = sext i32 %205 to i64
  %207 = xor i64 %200, %206
  %208 = inttoptr i64 %207 to ptr
  store ptr %208, ptr %7, align 8, !tbaa !19
  %209 = load ptr, ptr %7, align 8, !tbaa !19
  call void @Cudd_Deref(ptr noundef %209)
  %210 = load ptr, ptr %7, align 8, !tbaa !19
  call void @llvm.lifetime.end.p0(i64 4, ptr %14) #10
  call void @llvm.lifetime.end.p0(i64 4, ptr %13) #10
  call void @llvm.lifetime.end.p0(i64 4, ptr %12) #10
  call void @llvm.lifetime.end.p0(i64 8, ptr %11) #10
  call void @llvm.lifetime.end.p0(i64 8, ptr %10) #10
  call void @llvm.lifetime.end.p0(i64 8, ptr %9) #10
  call void @llvm.lifetime.end.p0(i64 8, ptr %8) #10
  call void @llvm.lifetime.end.p0(i64 8, ptr %7) #10
  ret ptr %210
}