; Function Attrs: nounwind uwtable
define noundef ptr @Abc_ConvertSopToBdd(ptr noundef %0, ptr noundef %1, ptr noundef readonly %2) local_unnamed_addr #2 {
  %4 = tail call i32 @Abc_SopGetVarNum(ptr noundef %1) #17
  %5 = tail call ptr @Cudd_ReadLogicZero(ptr noundef %0) #17
  tail call void @Cudd_Ref(ptr noundef %5) #17
  %6 = tail call i32 @Abc_SopIsExorType(ptr noundef %1) #17
  %.not = icmp eq i32 %6, 0
  br i1 %.not, label %14, label %.preheader99

.preheader99:                                     ; preds = %3
  %7 = icmp sgt i32 %4, 0
  br i1 %7, label %.lr.ph, label %.loopexit

.lr.ph:                                           ; preds = %.preheader99
  %.not98 = icmp eq ptr %2, null
  br i1 %.not98, label %.lr.ph.split.us, label %.lr.ph.split.preheader

.lr.ph.split.preheader:                           ; preds = %.lr.ph
  %wide.trip.count = zext nneg i32 %4 to i64
  br label %.lr.ph.split

.lr.ph.split.us:                                  ; preds = %.lr.ph, %.lr.ph.split.us
  %.0102.us = phi i32 [ %10, %.lr.ph.split.us ], [ 0, %.lr.ph ]
  %.077101.us = phi ptr [ %9, %.lr.ph.split.us ], [ %5, %.lr.ph ]
  %8 = tail call ptr @Cudd_bddIthVar(ptr noundef %0, i32 noundef %.0102.us) #17
  %9 = tail call ptr @Cudd_bddXor(ptr noundef %0, ptr noundef %.077101.us, ptr noundef %8) #17
  tail call void @Cudd_Ref(ptr noundef %9) #17
  tail call void @Cudd_RecursiveDeref(ptr noundef %0, ptr noundef %.077101.us) #17
  %10 = add nuw nsw i32 %.0102.us, 1
  %exitcond133.not = icmp eq i32 %10, %4
  br i1 %exitcond133.not, label %.loopexit, label %.lr.ph.split.us, !llvm.loop !14

.lr.ph.split:                                     ; preds = %.lr.ph.split.preheader, %.lr.ph.split
  %indvars.iv = phi i64 [ 0, %.lr.ph.split.preheader ], [ %indvars.iv.next, %.lr.ph.split ]
  %.077101 = phi ptr [ %5, %.lr.ph.split.preheader ], [ %13, %.lr.ph.split ]
  %11 = getelementptr inbounds nuw ptr, ptr %2, i64 %indvars.iv
  %12 = load ptr, ptr %11, align 8, !tbaa !10
  %13 = tail call ptr @Cudd_bddXor(ptr noundef %0, ptr noundef %.077101, ptr noundef %12) #17
  tail call void @Cudd_Ref(ptr noundef %13) #17
  tail call void @Cudd_RecursiveDeref(ptr noundef %0, ptr noundef %.077101) #17
  %indvars.iv.next = add nuw nsw i64 %indvars.iv, 1
  %exitcond.not = icmp eq i64 %indvars.iv.next, %wide.trip.count
  br i1 %exitcond.not, label %.loopexit, label %.lr.ph.split, !llvm.loop !14

14:                                               ; preds = %3
  %15 = tail call i32 @Abc_SopGetCubeNum(ptr noundef %1) #17
  %16 = icmp sgt i32 %15, 10000
  br i1 %16, label %38, label %.preheader

.preheader:                                       ; preds = %14
  %17 = load i8, ptr %1, align 1, !tbaa !3
  %.not90110 = icmp eq i8 %17, 0
  br i1 %.not90110, label %.loopexit, label %.lr.ph114

.lr.ph114:                                        ; preds = %.preheader
  %.not93 = icmp eq ptr %2, null
  %18 = sext i32 %4 to i64
  br i1 %.not93, label %.split.us.us.split.us.preheader, label %.split

.split.us.us.split.us.preheader:                  ; preds = %.lr.ph114, %.critedge.split.us.us
  %.3113.us = phi ptr [ %34, %.critedge.split.us.us ], [ %5, %.lr.ph114 ]
  %.082111.us = phi ptr [ %36, %.critedge.split.us.us ], [ %1, %.lr.ph114 ]
  %19 = tail call ptr @Cudd_ReadOne(ptr noundef %0) #17
  tail call void @Cudd_Ref(ptr noundef %19) #17
  br label %.split.us.us.split.us

.split.us.us.split.us:                            ; preds = %.split.us.us.split.us.preheader, %33
  %indvars.iv140 = phi i64 [ 0, %.split.us.us.split.us.preheader ], [ %indvars.iv.next141, %33 ]
  %.080.us.us.us = phi ptr [ %19, %.split.us.us.split.us.preheader ], [ %.181.us.us.us, %33 ]
  %20 = getelementptr inbounds nuw i8, ptr %.082111.us, i64 %indvars.iv140
  %21 = load i8, ptr %20, align 1, !tbaa !3
  switch i8 %21, label %33 [
    i8 32, label %.critedge.split.us.us
    i8 0, label %.critedge.split.us.us
    i8 48, label %25
    i8 49, label %22
  ]

22:                                               ; preds = %.split.us.us.split.us
  %23 = trunc nuw nsw i64 %indvars.iv140 to i32
  %24 = tail call ptr @Cudd_bddIthVar(ptr noundef %0, i32 noundef %23) #17
  br label %31

25:                                               ; preds = %.split.us.us.split.us
  %26 = trunc nuw nsw i64 %indvars.iv140 to i32
  %27 = tail call ptr @Cudd_bddIthVar(ptr noundef %0, i32 noundef %26) #17
  %28 = ptrtoint ptr %27 to i64
  %29 = xor i64 %28, 1
  %30 = inttoptr i64 %29 to ptr
  br label %31

31:                                               ; preds = %25, %22
  %.083.us.us.us = phi ptr [ %30, %25 ], [ %24, %22 ]
  %32 = tail call ptr @Cudd_bddAnd(ptr noundef %0, ptr noundef %.080.us.us.us, ptr noundef %.083.us.us.us) #17
  tail call void @Cudd_Ref(ptr noundef %32) #17
  tail call void @Cudd_RecursiveDeref(ptr noundef %0, ptr noundef %.080.us.us.us) #17
  br label %33

33:                                               ; preds = %31, %.split.us.us.split.us
  %.181.us.us.us = phi ptr [ %32, %31 ], [ %.080.us.us.us, %.split.us.us.split.us ]
  %indvars.iv.next141 = add nuw nsw i64 %indvars.iv140, 1
  br label %.split.us.us.split.us, !llvm.loop !15

.critedge.split.us.us:                            ; preds = %.split.us.us.split.us, %.split.us.us.split.us
  %34 = tail call ptr @Cudd_bddOr(ptr noundef %0, ptr noundef %.3113.us, ptr noundef %.080.us.us.us) #17
  tail call void @Cudd_Ref(ptr noundef %34) #17
  tail call void @Cudd_RecursiveDeref(ptr noundef %0, ptr noundef %.3113.us) #17
  tail call void @Cudd_RecursiveDeref(ptr noundef %0, ptr noundef %.080.us.us.us) #17
  %35 = getelementptr i8, ptr %.082111.us, i64 %18
  %36 = getelementptr i8, ptr %35, i64 3
  %37 = load i8, ptr %36, align 1, !tbaa !3
  %.not90.us = icmp eq i8 %37, 0
  br i1 %.not90.us, label %.loopexit, label %.split.us.us.split.us.preheader, !llvm.loop !16

38:                                               ; preds = %14
  tail call void @Cudd_Deref(ptr noundef %5) #17
  %.not95 = icmp eq ptr %2, null
  br i1 %.not95, label %44, label %39

39:                                               ; preds = %38
  %40 = tail call i32 @Abc_SopGetCubeNum(ptr noundef %1) #17
  %41 = tail call i32 @Abc_SopGetVarNum(ptr noundef %1) #17
  %42 = add nsw i32 %41, 3
  %43 = tail call ptr @Abc_ConvertSopToBdd2_rec(ptr noundef %0, ptr noundef %1, ptr noundef nonnull readonly %2, i32 noundef %40, i32 noundef %42, i32 noundef 0)
  br label %57

44:                                               ; preds = %38
  %45 = sext i32 %4 to i64
  %46 = shl nsw i64 %45, 3
  %47 = tail call noalias ptr @malloc(i64 noundef %46) #18
  %48 = icmp sgt i32 %4, 0
  br i1 %48, label %.lr.ph124.preheader, label %._crit_edge

.lr.ph124.preheader:                              ; preds = %44
  %wide.trip.count146 = zext nneg i32 %4 to i64
  br label %.lr.ph124

.lr.ph124:                                        ; preds = %.lr.ph124.preheader, %.lr.ph124
  %indvars.iv143 = phi i64 [ 0, %.lr.ph124.preheader ], [ %indvars.iv.next144, %.lr.ph124 ]
  %49 = trunc nuw nsw i64 %indvars.iv143 to i32
  %50 = tail call ptr @Cudd_bddIthVar(ptr noundef %0, i32 noundef %49) #17
  %51 = getelementptr inbounds nuw ptr, ptr %47, i64 %indvars.iv143
  store ptr %50, ptr %51, align 8, !tbaa !10
  %indvars.iv.next144 = add nuw nsw i64 %indvars.iv143, 1
  %exitcond147.not = icmp eq i64 %indvars.iv.next144, %wide.trip.count146
  br i1 %exitcond147.not, label %._crit_edge, label %.lr.ph124, !llvm.loop !17

._crit_edge:                                      ; preds = %.lr.ph124, %44
  %52 = tail call i32 @Abc_SopGetCubeNum(ptr noundef %1) #17
  %53 = tail call i32 @Abc_SopGetVarNum(ptr noundef %1) #17
  %54 = add nsw i32 %53, 3
  %55 = tail call ptr @Abc_ConvertSopToBdd2_rec(ptr noundef %0, ptr noundef %1, ptr noundef readonly %47, i32 noundef %52, i32 noundef %54, i32 noundef 0)
  %.not96 = icmp eq ptr %47, null
  br i1 %.not96, label %57, label %56

56:                                               ; preds = %._crit_edge
  tail call void @free(ptr noundef nonnull %47) #17
  br label %57

57:                                               ; preds = %56, %._crit_edge, %39
  %.279 = phi ptr [ %43, %39 ], [ %55, %._crit_edge ], [ %55, %56 ]
  tail call void @Cudd_Ref(ptr noundef %.279) #17
  br label %.loopexit

.split:                                           ; preds = %.lr.ph114, %.critedge.split.split
  %.3113 = phi ptr [ %74, %.critedge.split.split ], [ %5, %.lr.ph114 ]
  %.082111 = phi ptr [ %76, %.critedge.split.split ], [ %1, %.lr.ph114 ]
  %58 = tail call ptr @Cudd_ReadOne(ptr noundef %0) #17
  tail call void @Cudd_Ref(ptr noundef %58) #17
  br label %59

59:                                               ; preds = %73, %.split
  %indvars.iv134 = phi i64 [ %indvars.iv.next135, %73 ], [ 0, %.split ]
  %.080 = phi ptr [ %.181, %73 ], [ %58, %.split ]
  %60 = getelementptr inbounds nuw i8, ptr %.082111, i64 %indvars.iv134
  %61 = load i8, ptr %60, align 1, !tbaa !3
  switch i8 %61, label %73 [
    i8 32, label %.critedge.split.split
    i8 0, label %.critedge.split.split
    i8 48, label %62
    i8 49, label %68
  ]

62:                                               ; preds = %59
  %63 = getelementptr inbounds nuw ptr, ptr %2, i64 %indvars.iv134
  %64 = load ptr, ptr %63, align 8, !tbaa !10
  %65 = ptrtoint ptr %64 to i64
  %66 = xor i64 %65, 1
  %67 = inttoptr i64 %66 to ptr
  br label %71

68:                                               ; preds = %59
  %69 = getelementptr inbounds nuw ptr, ptr %2, i64 %indvars.iv134
  %70 = load ptr, ptr %69, align 8, !tbaa !10
  br label %71

71:                                               ; preds = %68, %62
  %.083 = phi ptr [ %67, %62 ], [ %70, %68 ]
  %72 = tail call ptr @Cudd_bddAnd(ptr noundef %0, ptr noundef %.080, ptr noundef %.083) #17
  tail call void @Cudd_Ref(ptr noundef %72) #17
  tail call void @Cudd_RecursiveDeref(ptr noundef %0, ptr noundef %.080) #17
  br label %73

73:                                               ; preds = %59, %71
  %.181 = phi ptr [ %72, %71 ], [ %.080, %59 ]
  %indvars.iv.next135 = add nuw nsw i64 %indvars.iv134, 1
  br label %59, !llvm.loop !15

.critedge.split.split:                            ; preds = %59, %59
  %74 = tail call ptr @Cudd_bddOr(ptr noundef %0, ptr noundef %.3113, ptr noundef %.080) #17
  tail call void @Cudd_Ref(ptr noundef %74) #17
  tail call void @Cudd_RecursiveDeref(ptr noundef %0, ptr noundef %.3113) #17
  tail call void @Cudd_RecursiveDeref(ptr noundef %0, ptr noundef %.080) #17
  %75 = getelementptr i8, ptr %.082111, i64 %18
  %76 = getelementptr i8, ptr %75, i64 3
  %77 = load i8, ptr %76, align 1, !tbaa !3
  %.not90 = icmp eq i8 %77, 0
  br i1 %.not90, label %.loopexit, label %.split, !llvm.loop !16

.loopexit:                                        ; preds = %.lr.ph.split, %.lr.ph.split.us, %.critedge.split.split, %.critedge.split.us.us, %.preheader99, %.preheader, %57
  %.178 = phi ptr [ %.279, %57 ], [ %5, %.preheader ], [ %5, %.preheader99 ], [ %34, %.critedge.split.us.us ], [ %74, %.critedge.split.split ], [ %9, %.lr.ph.split.us ], [ %13, %.lr.ph.split ]
  %78 = ptrtoint ptr %.178 to i64
  %79 = tail call i32 @Abc_SopGetPhase(ptr noundef %1) #17
  %.not97 = icmp eq i32 %79, 0
  %80 = zext i1 %.not97 to i64
  %81 = xor i64 %80, %78
  %82 = inttoptr i64 %81 to ptr
  tail call void @Cudd_Deref(ptr noundef %82) #17
  ret ptr %82
}